target datalayout = "e-m:e-p270:32:32-p271:32:32-p272:64:64-i64:64-i128:128-f80:128-n8:16:32:64-S128"
target triple = "x86_64-pc-linux-gnu"

%"class.bParse::bDNA" = type { %class.b3AlignedObjectArray, %class.b3AlignedObjectArray.0, %class.b3AlignedObjectArray.2, %class.b3AlignedObjectArray.4, %class.b3AlignedObjectArray.6, %class.b3HashMap, %class.b3HashMap.10, i32, [4 x i8] }
%class.b3AlignedObjectArray = type <{ [4 x i8], i32, i32, [4 x i8], ptr, i8, [7 x i8] }>
%class.b3AlignedObjectArray.0 = type <{ [4 x i8], i32, i32, [4 x i8], ptr, i8, [7 x i8] }>
%class.b3AlignedObjectArray.2 = type <{ [4 x i8], i32, i32, [4 x i8], ptr, i8, [7 x i8] }>
%class.b3AlignedObjectArray.4 = type <{ [4 x i8], i32, i32, [4 x i8], ptr, i8, [7 x i8] }>
%class.b3AlignedObjectArray.6 = type <{ [4 x i8], i32, i32, [4 x i8], ptr, i8, [7 x i8] }>
%class.b3HashMap = type { %class.b3AlignedObjectArray, %class.b3AlignedObjectArray, %class.b3AlignedObjectArray, %class.b3AlignedObjectArray.8 }
%class.b3AlignedObjectArray.8 = type <{ [4 x i8], i32, i32, [4 x i8], ptr, i8, [7 x i8] }>
%class.b3HashMap.10 = type { %class.b3AlignedObjectArray, %class.b3AlignedObjectArray, %class.b3AlignedObjectArray, %class.b3AlignedObjectArray.11 }
%class.b3AlignedObjectArray.11 = type <{ [4 x i8], i32, i32, [4 x i8], ptr, i8, [7 x i8] }>
%class.b3HashInt = type { i32 }

; Function Attrs: mustprogress nounwind uwtable
define linkonce_odr dso_local noundef i32 @_ZNK9b3HashInt7getUid1Ev(ptr noundef nonnull align 4 dereferenceable(4) %0) #3 comdat align 2 {
  %2 = alloca ptr, align 8
  store ptr %0, ptr %2, align 8, !tbaa !64
  %3 = load ptr, ptr %2, align 8
  %4 = getelementptr inbounds nuw %class.b3HashInt, ptr %3, i32 0, i32 0
  %5 = load i32, ptr %4, align 4, !tbaa !65
  ret i32 %5
}

; Function Attrs: mustprogress uwtable
define linkonce_odr dso_local noundef zeroext i1 @_ZNK9b3HashInt6equalsERKS_(ptr noundef nonnull align 4 dereferenceable(4) %0, ptr noundef nonnull align 4 dereferenceable(4) %1) #0 comdat align 2 {
  %3 = alloca ptr, align 8
  %4 = alloca ptr, align 8
  store ptr %0, ptr %3, align 8, !tbaa !64
  store ptr %1, ptr %4, align 8, !tbaa !64
  %5 = load ptr, ptr %3, align 8
  %6 = call noundef i32 @_ZNK9b3HashInt7getUid1Ev(ptr noundef nonnull align 4 dereferenceable(4) %5)
  %7 = load ptr, ptr %4, align 8, !tbaa !64
  %8 = call noundef i32 @_ZNK9b3HashInt7getUid1Ev(ptr noundef nonnull align 4 dereferenceable(4) %7)
  %9 = icmp eq i32 %6, %8
  ret i1 %9
}

; Function Attrs: inlinehint mustprogress nounwind uwtable
define linkonce_odr dso_local noundef nonnull align 4 dereferenceable(4) ptr @_ZNK20b3AlignedObjectArrayI9b3HashIntEixEi(ptr noundef nonnull align 8 dereferenceable(25) %0, i32 noundef %1) #2 comdat align 2 {
  %3 = alloca ptr, align 8
  %4 = alloca i32, align 4
  store ptr %0, ptr %3, align 8, !tbaa !113
  store i32 %1, ptr %4, align 4, !tbaa !51
  %5 = load ptr, ptr %3, align 8
  %6 = getelementptr inbounds nuw %class.b3AlignedObjectArray.8, ptr %5, i32 0, i32 4
  %7 = load ptr, ptr %6, align 8, !tbaa !118
  %8 = load i32, ptr %4, align 4, !tbaa !51
  %9 = sext i32 %8 to i64
  %10 = getelementptr inbounds %class.b3HashInt, ptr %7, i64 %9
  ret ptr %10
}

; Function Attrs: inlinehint mustprogress nounwind uwtable
define linkonce_odr dso_local noundef nonnull align 4 dereferenceable(4) ptr @_ZNK20b3AlignedObjectArrayIiEixEi(ptr noundef nonnull align 8 dereferenceable(25) %0, i32 noundef %1) #2 comdat align 2 {
  %3 = alloca ptr, align 8
  %4 = alloca i32, align 4
  store ptr %0, ptr %3, align 8, !tbaa !36
  store i32 %1, ptr %4, align 4, !tbaa !51
  %5 = load ptr, ptr %3, align 8
  %6 = getelementptr inbounds nuw %class.b3AlignedObjectArray, ptr %5, i32 0, i32 4
  %7 = load ptr, ptr %6, align 8, !tbaa !77
  %8 = load i32, ptr %4, align 4, !tbaa !51
  %9 = sext i32 %8 to i64
  %10 = getelementptr inbounds i32, ptr %7, i64 %9
  ret ptr %10
}

; Function Attrs: inlinehint mustprogress nounwind uwtable
define linkonce_odr dso_local noundef i32 @_ZNK20b3AlignedObjectArrayIiE4sizeEv(ptr noundef nonnull align 8 dereferenceable(25) %0) #2 comdat align 2 {
  %2 = alloca ptr, align 8
  store ptr %0, ptr %2, align 8, !tbaa !36
  %3 = load ptr, ptr %2, align 8
  %4 = getelementptr inbounds nuw %class.b3AlignedObjectArray, ptr %3, i32 0, i32 1
  %5 = load i32, ptr %4, align 4, !tbaa !89
  ret i32 %5
}

; Function Attrs: inlinehint mustprogress nounwind uwtable
define linkonce_odr dso_local noundef i32 @_ZNK20b3AlignedObjectArrayIiE8capacityEv(ptr noundef nonnull align 8 dereferenceable(25) %0) #2 comdat align 2 {
  %2 = alloca ptr, align 8
  store ptr %0, ptr %2, align 8, !tbaa !36
  %3 = load ptr, ptr %2, align 8
  %4 = getelementptr inbounds nuw %class.b3AlignedObjectArray, ptr %3, i32 0, i32 2
  %5 = load i32, ptr %4, align 8, !tbaa !149
  ret i32 %5
}

; Function Attrs: inlinehint mustprogress nounwind uwtable
define linkonce_odr dso_local noundef i32 @_ZNK9b3HashInt7getHashEv(ptr noundef nonnull align 4 dereferenceable(4) %0) #2 comdat align 2 {
  %2 = alloca ptr, align 8
  %3 = alloca i32, align 4
  store ptr %0, ptr %2, align 8, !tbaa !64
  %4 = load ptr, ptr %2, align 8
  call void @llvm.lifetime.start.p0(i64 4, ptr %3) #14
  %5 = getelementptr inbounds nuw %class.b3HashInt, ptr %4, i32 0, i32 0
  %6 = load i32, ptr %5, align 4, !tbaa !65
  store i32 %6, ptr %3, align 4, !tbaa !51
  %7 = load i32, ptr %3, align 4, !tbaa !51
  %8 = shl i32 %7, 15
  %9 = xor i32 %8, -1
  %10 = load i32, ptr %3, align 4, !tbaa !51
  %11 = add nsw i32 %10, %9
  store i32 %11, ptr %3, align 4, !tbaa !51
  %12 = load i32, ptr %3, align 4, !tbaa !51
  %13 = ashr i32 %12, 10
  %14 = load i32, ptr %3, align 4, !tbaa !51
  %15 = xor i32 %14, %13
  store i32 %15, ptr %3, align 4, !tbaa !51
  %16 = load i32, ptr %3, align 4, !tbaa !51
  %17 = shl i32 %16, 3
  %18 = load i32, ptr %3, align 4, !tbaa !51
  %19 = add nsw i32 %18, %17
  store i32 %19, ptr %3, align 4, !tbaa !51
  %20 = load i32, ptr %3, align 4, !tbaa !51
  %21 = ashr i32 %20, 6
  %22 = load i32, ptr %3, align 4, !tbaa !51
  %23 = xor i32 %22, %21
  store i32 %23, ptr %3, align 4, !tbaa !51
  %24 = load i32, ptr %3, align 4, !tbaa !51
  %25 = shl i32 %24, 11
  %26 = xor i32 %25, -1
  %27 = load i32, ptr %3, align 4, !tbaa !51
  %28 = add nsw i32 %27, %26
  store i32 %28, ptr %3, align 4, !tbaa !51
  %29 = load i32, ptr %3, align 4, !tbaa !51
  %30 = ashr i32 %29, 16
  %31 = load i32, ptr %3, align 4, !tbaa !51
  %32 = xor i32 %31, %30
  store i32 %32, ptr %3, align 4, !tbaa !51
  %33 = load i32, ptr %3, align 4, !tbaa !51
  call void @llvm.lifetime.end.p0(i64 4, ptr %3) #14
  ret i32 %33
}

; Function Attrs: inlinehint mustprogress nounwind uwtable
define linkonce_odr dso_local noundef nonnull align 4 dereferenceable(4) ptr @_ZN20b3AlignedObjectArrayIiEixEi(ptr noundef nonnull align 8 dereferenceable(25) %0, i32 noundef %1) #2 comdat align 2 {
  %3 = alloca ptr, align 8
  %4 = alloca i32, align 4
  store ptr %0, ptr %3, align 8, !tbaa !36
  store i32 %1, ptr %4, align 4, !tbaa !51
  %5 = load ptr, ptr %3, align 8
  %6 = getelementptr inbounds nuw %class.b3AlignedObjectArray, ptr %5, i32 0, i32 4
  %7 = load ptr, ptr %6, align 8, !tbaa !77
  %8 = load i32, ptr %4, align 4, !tbaa !51
  %9 = sext i32 %8 to i64
  %10 = getelementptr inbounds i32, ptr %7, i64 %9
  ret ptr %10
}

; Function Attrs: mustprogress uwtable
define linkonce_odr dso_local noundef i32 @_ZNK9b3HashMapI9b3HashIntiE9findIndexERKS0_(ptr noundef nonnull align 8 dereferenceable(128) %0, ptr noundef nonnull align 4 dereferenceable(4) %1) #0 comdat align 2 {
  %3 = alloca i32, align 4
  %4 = alloca ptr, align 8
  %5 = alloca ptr, align 8
  %6 = alloca i32, align 4
  %7 = alloca i32, align 4
  %8 = alloca i32, align 4
  store ptr %0, ptr %4, align 8, !tbaa !46
  store ptr %1, ptr %5, align 8, !tbaa !64
  %9 = load ptr, ptr %4, align 8
  call void @llvm.lifetime.start.p0(i64 4, ptr %6) #14
  %10 = load ptr, ptr %5, align 8, !tbaa !64
  %11 = call noundef i32 @_ZNK9b3HashInt7getHashEv(ptr noundef nonnull align 4 dereferenceable(4) %10)
  %12 = getelementptr inbounds nuw %class.b3HashMap, ptr %9, i32 0, i32 2
  %13 = call noundef i32 @_ZNK20b3AlignedObjectArrayIiE8capacityEv(ptr noundef nonnull align 8 dereferenceable(25) %12)
  %14 = sub nsw i32 %13, 1
  %15 = and i32 %11, %14
  store i32 %15, ptr %6, align 4, !tbaa !51
  %16 = load i32, ptr %6, align 4, !tbaa !51
  %17 = getelementptr inbounds nuw %class.b3HashMap, ptr %9, i32 0, i32 0
  %18 = call noundef i32 @_ZNK20b3AlignedObjectArrayIiE4sizeEv(ptr noundef nonnull align 8 dereferenceable(25) %17)
  %19 = icmp uge i32 %16, %18
  br i1 %19, label %20, label %21

20:                                               ; preds = %2
  store i32 -1, ptr %3, align 4
  store i32 1, ptr %7, align 4
  br label %46

21:                                               ; preds = %2
  call void @llvm.lifetime.start.p0(i64 4, ptr %8) #14
  %22 = getelementptr inbounds nuw %class.b3HashMap, ptr %9, i32 0, i32 0
  %23 = load i32, ptr %6, align 4, !tbaa !51
  %24 = call noundef nonnull align 4 dereferenceable(4) ptr @_ZNK20b3AlignedObjectArrayIiEixEi(ptr noundef nonnull align 8 dereferenceable(25) %22, i32 noundef %23)
  %25 = load i32, ptr %24, align 4, !tbaa !51
  store i32 %25, ptr %8, align 4, !tbaa !51
  br label %26

26:                                               ; preds = %39, %21
  %27 = load i32, ptr %8, align 4, !tbaa !51
  %28 = icmp ne i32 %27, -1
  br i1 %28, label %29, label %37

29:                                               ; preds = %26
  %30 = load ptr, ptr %5, align 8, !tbaa !64
  %31 = getelementptr inbounds nuw %class.b3HashMap, ptr %9, i32 0, i32 3
  %32 = load i32, ptr %8, align 4, !tbaa !51
  %33 = call noundef nonnull align 4 dereferenceable(4) ptr @_ZNK20b3AlignedObjectArrayI9b3HashIntEixEi(ptr noundef nonnull align 8 dereferenceable(25) %31, i32 noundef %32)
  %34 = call noundef zeroext i1 @_ZNK9b3HashInt6equalsERKS_(ptr noundef nonnull align 4 dereferenceable(4) %30, ptr noundef nonnull align 4 dereferenceable(4) %33)
  %35 = zext i1 %34 to i32
  %36 = icmp eq i32 %35, 0
  br label %37

37:                                               ; preds = %29, %26
  %38 = phi i1 [ false, %26 ], [ %36, %29 ]
  br i1 %38, label %39, label %44

39:                                               ; preds = %37
  %40 = getelementptr inbounds nuw %class.b3HashMap, ptr %9, i32 0, i32 1
  %41 = load i32, ptr %8, align 4, !tbaa !51
  %42 = call noundef nonnull align 4 dereferenceable(4) ptr @_ZNK20b3AlignedObjectArrayIiEixEi(ptr noundef nonnull align 8 dereferenceable(25) %40, i32 noundef %41)
  %43 = load i32, ptr %42, align 4, !tbaa !51
  store i32 %43, ptr %8, align 4, !tbaa !51
  br label %26, !llvm.loop !171

44:                                               ; preds = %37
  %45 = load i32, ptr %8, align 4, !tbaa !51
  store i32 %45, ptr %3, align 4
  store i32 1, ptr %7, align 4
  call void @llvm.lifetime.end.p0(i64 4, ptr %8) #14
  br label %46

46:                                               ; preds = %44, %20
  call void @llvm.lifetime.end.p0(i64 4, ptr %6) #14
  %47 = load i32, ptr %3, align 4
  ret i32 %47
}

; Function Attrs: mustprogress uwtable
define linkonce_odr dso_local noundef ptr @_ZN9b3HashMapI9b3HashIntiE4findERKS0_(ptr noundef nonnull align 8 dereferenceable(128) %0, ptr noundef nonnull align 4 dereferenceable(4) %1) #0 comdat align 2 {
  %3 = alloca ptr, align 8
  %4 = alloca ptr, align 8
  %5 = alloca ptr, align 8
  %6 = alloca i32, align 4
  %7 = alloca i32, align 4
  store ptr %0, ptr %4, align 8, !tbaa !46
  store ptr %1, ptr %5, align 8, !tbaa !64
  %8 = load ptr, ptr %4, align 8
  call void @llvm.lifetime.start.p0(i64 4, ptr %6) #14
  %9 = load ptr, ptr %5, align 8, !tbaa !64
  %10 = call noundef i32 @_ZNK9b3HashMapI9b3HashIntiE9findIndexERKS0_(ptr noundef nonnull align 8 dereferenceable(128) %8, ptr noundef nonnull align 4 dereferenceable(4) %9)
  store i32 %10, ptr %6, align 4, !tbaa !51
  %11 = load i32, ptr %6, align 4, !tbaa !51
  %12 = icmp eq i32 %11, -1
  br i1 %12, label %13, label %14

13:                                               ; preds = %2
  store ptr null, ptr %3, align 8
  store i32 1, ptr %7, align 4
  br label %18

14:                                               ; preds = %2
  %15 = getelementptr inbounds nuw %class.b3HashMap, ptr %8, i32 0, i32 2
  %16 = load i32, ptr %6, align 4, !tbaa !51
  %17 = call noundef nonnull align 4 dereferenceable(4) ptr @_ZN20b3AlignedObjectArrayIiEixEi(ptr noundef nonnull align 8 dereferenceable(25) %15, i32 noundef %16)
  store ptr %17, ptr %3, align 8
  store i32 1, ptr %7, align 4
  br label %18

18:                                               ; preds = %14, %13
  call void @llvm.lifetime.end.p0(i64 4, ptr %6) #14
  %19 = load ptr, ptr %3, align 8
  ret ptr %19
}

; Function Attrs: mustprogress nounwind uwtable
define linkonce_odr dso_local void @_ZN9b3HashIntC2Ei(ptr noundef nonnull align 4 dereferenceable(4) %0, i32 noundef %1) unnamed_addr #3 comdat align 2 {
  %3 = alloca ptr, align 8
  %4 = alloca i32, align 4
  store ptr %0, ptr %3, align 8, !tbaa !64
  store i32 %1, ptr %4, align 4, !tbaa !51
  %5 = load ptr, ptr %3, align 8
  %6 = getelementptr inbounds nuw %class.b3HashInt, ptr %5, i32 0, i32 0
  %7 = load i32, ptr %4, align 4, !tbaa !51
  store i32 %7, ptr %6, align 4, !tbaa !65
  ret void
}

; Function Attrs: mustprogress uwtable
define dso_local noundef i32 @_ZN6bParse4bDNA14getReverseTypeEs(ptr noundef nonnull align 8 dereferenceable(420) %0, i16 noundef signext %1) #0 align 2 {
  %3 = alloca i32, align 4
  %4 = alloca ptr, align 8
  %5 = alloca i16, align 2
  %6 = alloca ptr, align 8
  %7 = alloca %class.b3HashInt, align 4
  %8 = alloca i32, align 4
  store ptr %0, ptr %4, align 8, !tbaa !4
  store i16 %1, ptr %5, align 2, !tbaa !60
  %9 = load ptr, ptr %4, align 8
  call void @llvm.lifetime.start.p0(i64 8, ptr %6) #14
  %10 = getelementptr inbounds nuw %"class.bParse::bDNA", ptr %9, i32 0, i32 5
  call void @llvm.lifetime.start.p0(i64 4, ptr %7) #14
  %11 = load i16, ptr %5, align 2, !tbaa !60
  %12 = sext i16 %11 to i32
  call void @_ZN9b3HashIntC2Ei(ptr noundef nonnull align 4 dereferenceable(4) %7, i32 noundef %12)
  %13 = call noundef ptr @_ZN9b3HashMapI9b3HashIntiE4findERKS0_(ptr noundef nonnull align 8 dereferenceable(128) %10, ptr noundef nonnull align 4 dereferenceable(4) %7)
  call void @llvm.lifetime.end.p0(i64 4, ptr %7) #14
  store ptr %13, ptr %6, align 8, !tbaa !63
  %14 = load ptr, ptr %6, align 8, !tbaa !63
  %15 = icmp ne ptr %14, null
  br i1 %15, label %16, label %19

16:                                               ; preds = %2
  %17 = load ptr, ptr %6, align 8, !tbaa !63
  %18 = load i32, ptr %17, align 4, !tbaa !51
  store i32 %18, ptr %3, align 4
  store i32 1, ptr %8, align 4
  br label %20

19:                                               ; preds = %2
  store i32 -1, ptr %3, align 4
  store i32 1, ptr %8, align 4
  br label %20

20:                                               ; preds = %19, %16
  call void @llvm.lifetime.end.p0(i64 8, ptr %6) #14
  %21 = load i32, ptr %3, align 4
  ret i32 %21
}