; Function Attrs: mustprogress nofree norecurse nosync nounwind willreturn memory(read, inaccessiblemem: none) uwtable
define dso_local noundef i32 @_ZN6bParse4bDNA14getReverseTypeEs(ptr noundef nonnull readonly align 8 captures(none) dereferenceable(420) %0, i16 noundef signext %1) local_unnamed_addr #4 align 2 {
  %3 = sext i16 %1 to i32
  %4 = shl nsw i32 %3, 15
  %5 = xor i32 %4, -1
  %6 = add nsw i32 %5, %3
  %7 = ashr i32 %6, 10
  %8 = xor i32 %7, %6
  %9 = mul i32 %8, 9
  %10 = ashr i32 %9, 6
  %11 = xor i32 %10, %9
  %12 = shl i32 %11, 11
  %13 = xor i32 %12, -1
  %14 = add nsw i32 %11, %13
  %15 = ashr i32 %14, 16
  %16 = xor i32 %15, %14
  %17 = getelementptr inbounds nuw i8, ptr %0, i64 232
  %18 = load i32, ptr %17, align 8, !tbaa !15
  %19 = add nsw i32 %18, -1
  %20 = and i32 %19, %16
  %21 = getelementptr inbounds nuw i8, ptr %0, i64 164
  %22 = load i32, ptr %21, align 4, !tbaa !14
  %.not.i.i = icmp ult i32 %20, %22
  br i1 %.not.i.i, label %23, label %_ZN9b3HashMapI9b3HashIntiE4findERKS0_.exit.thread

23:                                               ; preds = %2
  %24 = getelementptr inbounds nuw i8, ptr %0, i64 176
  %25 = load ptr, ptr %24, align 8, !tbaa !13
  %26 = sext i32 %20 to i64
  %27 = getelementptr inbounds i32, ptr %25, i64 %26
  %.012.i.i = load i32, ptr %27, align 4, !tbaa !79
  %.not1113.i.i = icmp eq i32 %.012.i.i, -1
  br i1 %.not1113.i.i, label %_ZN9b3HashMapI9b3HashIntiE4findERKS0_.exit.thread, label %.lr.ph.i.i

.lr.ph.i.i:                                       ; preds = %23
  %28 = getelementptr inbounds nuw i8, ptr %0, i64 272
  %29 = load ptr, ptr %28, align 8, !tbaa !48
  %30 = getelementptr inbounds nuw i8, ptr %0, i64 208
  %31 = load ptr, ptr %30, align 8
  br label %32

32:                                               ; preds = %37, %.lr.ph.i.i
  %.014.i.i = phi i32 [ %.012.i.i, %.lr.ph.i.i ], [ %.0.i.i, %37 ]
  %33 = sext i32 %.014.i.i to i64
  %34 = getelementptr inbounds %class.b3HashInt, ptr %29, i64 %33
  %35 = load i32, ptr %34, align 4, !tbaa !80
  %36 = icmp eq i32 %35, %3
  br i1 %36, label %_ZN9b3HashMapI9b3HashIntiE4findERKS0_.exit, label %37

37:                                               ; preds = %32
  %38 = getelementptr inbounds i32, ptr %31, i64 %33
  %.0.i.i = load i32, ptr %38, align 4, !tbaa !79
  %.not11.i.i = icmp eq i32 %.0.i.i, -1
  br i1 %.not11.i.i, label %_ZN9b3HashMapI9b3HashIntiE4findERKS0_.exit.thread, label %32, !llvm.loop !82

_ZN9b3HashMapI9b3HashIntiE4findERKS0_.exit:       ; preds = %32
  %39 = getelementptr inbounds nuw i8, ptr %0, i64 240
  %40 = load ptr, ptr %39, align 8, !tbaa !13
  %.not = icmp eq ptr %40, null
  br i1 %.not, label %_ZN9b3HashMapI9b3HashIntiE4findERKS0_.exit.thread, label %41

41:                                               ; preds = %_ZN9b3HashMapI9b3HashIntiE4findERKS0_.exit
  %42 = getelementptr inbounds i32, ptr %40, i64 %33
  %43 = load i32, ptr %42, align 4, !tbaa !79
  br label %_ZN9b3HashMapI9b3HashIntiE4findERKS0_.exit.thread

_ZN9b3HashMapI9b3HashIntiE4findERKS0_.exit.thread: ; preds = %37, %23, %2, %_ZN9b3HashMapI9b3HashIntiE4findERKS0_.exit, %41
  %.0 = phi i32 [ %43, %41 ], [ -1, %_ZN9b3HashMapI9b3HashIntiE4findERKS0_.exit ], [ -1, %2 ], [ -1, %23 ], [ -1, %37 ]
  ret i32 %.0
}